target datalayout = "e-m:e-p270:32:32-p271:32:32-p272:64:64-i64:64-i128:128-f80:128-n8:16:32:64-S128"
target triple = "x86_64-pc-linux-gnu"

%struct.pmix_object_t = type { %union.pthread_mutex_t, ptr, i32, %struct.pmix_tma }
%union.pthread_mutex_t = type { %struct.__pthread_mutex_s }
%struct.__pthread_mutex_s = type { i32, i32, i32, i32, i32, i16, i16, %struct.__pthread_internal_list }
%struct.__pthread_internal_list = type { ptr, ptr }
%struct.pmix_tma = type { ptr, ptr, ptr, ptr, ptr, ptr, ptr, ptr }
%struct.timeval = type { i64, i64 }
%struct.event = type { %struct.event_callback, %union.anon.0, i32, ptr, %union.anon.2, i16, i16, %struct.timeval }
%struct.event_callback = type { %struct.anon, i16, i8, i8, %union.anon, ptr }
%struct.anon = type { ptr, ptr }
%union.anon = type { ptr }
%union.anon.0 = type { %struct.anon.1 }
%struct.anon.1 = type { ptr, ptr }
%union.anon.2 = type { %struct.anon.3 }
%struct.anon.3 = type { %struct.anon.4, %struct.timeval }
%struct.anon.4 = type { ptr, ptr }
%struct.pmix_byte_object = type { ptr, i64 }
%struct.prte_pmix_mdx_caddy_t = type { %struct.pmix_object_t, %struct.event, ptr, i32, ptr, ptr, %struct.pmix_byte_object, ptr, i64, ptr, i64, ptr, ptr, ptr, ptr, ptr, ptr }

; Function Attrs: nounwind uwtable
define internal void @mdcon(ptr noundef %0) #0 {
  %2 = alloca ptr, align 8
  store ptr %0, ptr %2, align 8, !tbaa !36
  %3 = load ptr, ptr %2, align 8, !tbaa !36
  %4 = getelementptr inbounds nuw %struct.prte_pmix_mdx_caddy_t, ptr %3, i32 0, i32 2
  store ptr null, ptr %4, align 8, !tbaa !219
  %5 = load ptr, ptr %2, align 8, !tbaa !36
  %6 = getelementptr inbounds nuw %struct.prte_pmix_mdx_caddy_t, ptr %5, i32 0, i32 4
  store ptr null, ptr %6, align 8, !tbaa !222
  %7 = load ptr, ptr %2, align 8, !tbaa !36
  %8 = getelementptr inbounds nuw %struct.prte_pmix_mdx_caddy_t, ptr %7, i32 0, i32 5
  store ptr null, ptr %8, align 8, !tbaa !223
  %9 = load ptr, ptr %2, align 8, !tbaa !36
  %10 = getelementptr inbounds nuw %struct.prte_pmix_mdx_caddy_t, ptr %9, i32 0, i32 6
  call void @PMIx_Byte_object_construct(ptr noundef %10)
  %11 = load ptr, ptr %2, align 8, !tbaa !36
  %12 = getelementptr inbounds nuw %struct.prte_pmix_mdx_caddy_t, ptr %11, i32 0, i32 7
  store ptr null, ptr %12, align 8, !tbaa !224
  %13 = load ptr, ptr %2, align 8, !tbaa !36
  %14 = getelementptr inbounds nuw %struct.prte_pmix_mdx_caddy_t, ptr %13, i32 0, i32 8
  store i64 0, ptr %14, align 8, !tbaa !225
  %15 = load ptr, ptr %2, align 8, !tbaa !36
  %16 = getelementptr inbounds nuw %struct.prte_pmix_mdx_caddy_t, ptr %15, i32 0, i32 9
  store ptr null, ptr %16, align 8, !tbaa !226
  %17 = load ptr, ptr %2, align 8, !tbaa !36
  %18 = getelementptr inbounds nuw %struct.prte_pmix_mdx_caddy_t, ptr %17, i32 0, i32 10
  store i64 0, ptr %18, align 8, !tbaa !227
  %19 = load ptr, ptr %2, align 8, !tbaa !36
  %20 = getelementptr inbounds nuw %struct.prte_pmix_mdx_caddy_t, ptr %19, i32 0, i32 15
  store ptr null, ptr %20, align 8, !tbaa !228
  %21 = load ptr, ptr %2, align 8, !tbaa !36
  %22 = getelementptr inbounds nuw %struct.prte_pmix_mdx_caddy_t, ptr %21, i32 0, i32 11
  store ptr null, ptr %22, align 8, !tbaa !229
  %23 = load ptr, ptr %2, align 8, !tbaa !36
  %24 = getelementptr inbounds nuw %struct.prte_pmix_mdx_caddy_t, ptr %23, i32 0, i32 12
  store ptr null, ptr %24, align 8, !tbaa !230
  %25 = load ptr, ptr %2, align 8, !tbaa !36
  %26 = getelementptr inbounds nuw %struct.prte_pmix_mdx_caddy_t, ptr %25, i32 0, i32 13
  store ptr null, ptr %26, align 8, !tbaa !231
  %27 = load ptr, ptr %2, align 8, !tbaa !36
  %28 = getelementptr inbounds nuw %struct.prte_pmix_mdx_caddy_t, ptr %27, i32 0, i32 14
  store ptr null, ptr %28, align 8, !tbaa !232
  ret void
}