; Function Attrs: nounwind uwtable
define internal void @mdcon(ptr noundef initializes((248, 256), (264, 280)) %0) #0 {
  %2 = getelementptr inbounds nuw i8, ptr %0, i64 248
  store ptr null, ptr %2, align 8, !tbaa !171
  %3 = getelementptr inbounds nuw i8, ptr %0, i64 264
  %4 = getelementptr inbounds nuw i8, ptr %0, i64 280
  tail call void @llvm.memset.p0.i64(ptr noundef nonnull align 8 dereferenceable(16) %3, i8 0, i64 16, i1 false)
  tail call void @PMIx_Byte_object_construct(ptr noundef nonnull %4) #17
  %5 = getelementptr inbounds nuw i8, ptr %0, i64 296
  tail call void @llvm.memset.p0.i64(ptr noundef nonnull align 8 dereferenceable(72) %5, i8 0, i64 72, i1 false)
  ret void
}